Certificate:
    Data:
        Version: 1 (0x0)
        Serial Number: 36 (0x24)
        Signature Algorithm: md5WithRSAEncryption
        Issuer: C=SG, ST=SG, L=SG, O=SUTD, OU=ISTD, CN=Jie Yang/emailAddress=jie_yang@mymail.sutd.edu.sg
        Validity
            Not Before: Apr  9 09:40:48 2016 GMT
            Not After : Apr  9 09:40:48 2017 GMT
        Subject: C=sg, ST=sg, L=sg, O=sutd, OU=cse, CN=hetty/emailAddress=1001198@mymail.sutd.edu.sg
        Subject Public Key Info:
            Public Key Algorithm: rsaEncryption
            RSA Public Key: (1024 bit)
                Modulus (1024 bit):
                    00:ad:e1:23:61:13:b4:a1:41:a5:a1:7a:1f:33:8d:
                    6e:81:d8:bd:de:8e:54:7f:26:86:29:dd:7b:82:f6:
                    1a:f3:0a:2c:e7:43:c7:e8:3b:7e:3a:f9:05:c3:4e:
                    48:0c:26:ce:10:4e:cb:44:75:9f:12:2f:d4:8d:6a:
                    3f:ad:39:6e:d2:76:15:e1:5a:7f:8c:78:d6:52:2b:
                    93:8a:86:bf:03:26:38:c4:46:89:2a:40:d1:ea:73:
                    2d:22:e5:f4:ad:6e:9f:3b:f3:f0:59:82:f7:0a:7c:
                    07:18:df:7a:ff:09:19:5d:5f:5f:d8:a1:41:97:fd:
                    6c:7c:47:84:5b:15:06:e3:03
                Exponent: 65537 (0x10001)
    Signature Algorithm: md5WithRSAEncryption
        3a:48:a9:2f:84:0f:c9:77:87:9f:5f:85:33:14:0c:a2:62:8e:
        a0:45:f8:be:85:4b:9a:d6:bc:7f:d3:82:73:06:86:b9:fc:6b:
        1b:d4:8b:67:55:b4:da:59:3a:67:f2:e1:52:ca:de:a9:ac:ca:
        9f:44:62:f7:3c:bc:d6:1f:e1:f9:2c:6a:b9:7c:37:f3:ed:12:
        41:31:b8:83:06:e7:61:b4:1b:35:93:c1:4b:a2:49:97:a7:5d:
        b6:e2:28:02:25:ad:62:83:25:2c:cb:99:a2:c3:8b:f4:5f:03:
        eb:a8:32:5c:f9:c6:6b:28:8e:92:3e:46:00:0b:c9:6b:4e:50:
        1d:cb
-----BEGIN CERTIFICATE-----
MIICczCCAdwCASQwDQYJKoZIhvcNAQEEBQAwgYQxCzAJBgNVBAYTAlNHMQswCQYD
VQQIEwJTRzELMAkGA1UEBxMCU0cxDTALBgNVBAoTBFNVVEQxDTALBgNVBAsTBElT
VEQxETAPBgNVBAMTCEppZSBZYW5nMSowKAYJKoZIhvcNAQkBFhtqaWVfeWFuZ0Bt
eW1haWwuc3V0ZC5lZHUuc2cwHhcNMTYwNDA5MDk0MDQ4WhcNMTcwNDA5MDk0MDQ4
WjB/MQswCQYDVQQGEwJzZzELMAkGA1UECAwCc2cxCzAJBgNVBAcMAnNnMQ0wCwYD
VQQKDARzdXRkMQwwCgYDVQQLDANjc2UxDjAMBgNVBAMMBWhldHR5MSkwJwYJKoZI
hvcNAQkBFhoxMDAxMTk4QG15bWFpbC5zdXRkLmVkdS5zZzCBnzANBgkqhkiG9w0B
AQEFAAOBjQAwgYkCgYEAreEjYRO0oUGloXofM41ugdi93o5UfyaGKd17gvYa8wos
50PH6Dt+OvkFw05IDCbOEE7LRHWfEi/UjWo/rTlu0nYV4Vp/jHjWUiuTioa/AyY4
xEaJKkDR6nMtIuX0rW6fO/PwWYL3CnwHGN96/wkZXV9f2KFBl/1sfEeEWxUG4wMC
AwEAATANBgkqhkiG9w0BAQQFAAOBgQA6SKkvhA/Jd4efX4UzFAyiYo6gRfi+hUua
1rx/04JzBoa5/Gsb1ItnVbTaWTpn8uFSyt6prMqfRGL3PLzWH+H5LGq5fDfz7RJB
MbiDBudhtBs1k8FLokmXp1224igCJa1igyUsy5miw4v0XwPrqDJc+cZrKI6SPkYA
C8lrTlAdyw==
-----END CERTIFICATE-----
